target datalayout = "e-m:e-p270:32:32-p271:32:32-p272:64:64-i64:64-i128:128-f80:128-n8:16:32:64-S128"
target triple = "x86_64-pc-linux-gnu"

%class.FactUnion = type <{ %class.Fact.base, [4 x i8], ptr, i32, [4 x i8] }>
%class.Fact.base = type <{ ptr, i32 }>

@_ZTI4Fact = external constant ptr
@_ZTI9FactUnion = dso_local constant { ptr, ptr, ptr } { ptr getelementptr inbounds (ptr, ptr @_ZTVN10__cxxabiv120__si_class_type_infoE, i64 2), ptr @_ZTS9FactUnion, ptr @_ZTI4Fact }, align 8
@_ZN9FactUnionC1EPK8Variablei = dso_local unnamed_addr alias void (ptr, ptr, i32), ptr @_ZN9FactUnionC2EPK8Variablei

; Function Attrs: mustprogress uwtable
define dso_local noundef zeroext i1 @_ZNK9FactUnion5implyERK4Fact(ptr noundef nonnull align 8 dereferenceable(28) %0, ptr noundef nonnull align 8 dereferenceable(12) %1) unnamed_addr #4 align 2 {
  %3 = alloca i1, align 1
  %4 = alloca ptr, align 8
  %5 = alloca ptr, align 8
  %6 = alloca ptr, align 8
  %7 = alloca i32, align 4
  store ptr %0, ptr %4, align 8, !tbaa !4
  store ptr %1, ptr %5, align 8, !tbaa !92
  %8 = load ptr, ptr %4, align 8
  %9 = load ptr, ptr %5, align 8, !tbaa !92
  %10 = load ptr, ptr %8, align 8, !tbaa !11
  %11 = getelementptr inbounds ptr, ptr %10, i64 11
  %12 = load ptr, ptr %11, align 8
  %13 = call noundef zeroext i1 %12(ptr noundef nonnull align 8 dereferenceable(12) %8, ptr noundef nonnull align 8 dereferenceable(12) %9)
  br i1 %13, label %14, label %39

14:                                               ; preds = %2
  %15 = load ptr, ptr %8, align 8, !tbaa !11
  %16 = getelementptr inbounds ptr, ptr %15, i64 7
  %17 = load ptr, ptr %16, align 8
  %18 = call noundef zeroext i1 %17(ptr noundef nonnull align 8 dereferenceable(28) %8)
  br i1 %18, label %19, label %20

19:                                               ; preds = %14
  store i1 true, ptr %3, align 1
  br label %40

20:                                               ; preds = %14
  call void @llvm.lifetime.start.p0(i64 8, ptr %6) #3
  %21 = load ptr, ptr %5, align 8, !tbaa !92
  store ptr %21, ptr %6, align 8, !tbaa !4
  %22 = load ptr, ptr %6, align 8, !tbaa !4
  %23 = load ptr, ptr %22, align 8, !tbaa !11
  %24 = getelementptr inbounds ptr, ptr %23, i64 7
  %25 = load ptr, ptr %24, align 8
  %26 = call noundef zeroext i1 %25(ptr noundef nonnull align 8 dereferenceable(28) %22)
  br i1 %26, label %27, label %28

27:                                               ; preds = %20
  store i1 false, ptr %3, align 1
  store i32 1, ptr %7, align 4
  br label %36

28:                                               ; preds = %20
  %29 = load ptr, ptr %6, align 8, !tbaa !4
  %30 = load ptr, ptr %8, align 8, !tbaa !11
  %31 = getelementptr inbounds ptr, ptr %30, i64 12
  %32 = load ptr, ptr %31, align 8
  %33 = call noundef zeroext i1 %32(ptr noundef nonnull align 8 dereferenceable(28) %8, ptr noundef nonnull align 8 dereferenceable(12) %29)
  br i1 %33, label %34, label %35

34:                                               ; preds = %28
  store i1 true, ptr %3, align 1
  store i32 1, ptr %7, align 4
  br label %36

35:                                               ; preds = %28
  store i32 0, ptr %7, align 4
  br label %36

36:                                               ; preds = %35, %34, %27
  call void @llvm.lifetime.end.p0(i64 8, ptr %6) #3
  %37 = load i32, ptr %7, align 4
  switch i32 %37, label %42 [
    i32 0, label %38
    i32 1, label %40
  ]

38:                                               ; preds = %36
  br label %39

39:                                               ; preds = %38, %2
  store i1 false, ptr %3, align 1
  br label %40

40:                                               ; preds = %39, %36, %19
  %41 = load i1, ptr %3, align 1
  ret i1 %41

42:                                               ; preds = %36
  unreachable
}

; Function Attrs: mustprogress uwtable
define dso_local noundef zeroext i1 @_ZN9FactUnion17is_field_readableEPK8VariableiRKSt6vectorIPK4FactSaIS6_EE(ptr noundef %0, i32 noundef %1, ptr noundef nonnull align 8 dereferenceable(24) %2) #4 align 2 personality ptr @__gxx_personality_v0 {
  %4 = alloca ptr, align 8
  %5 = alloca i32, align 4
  %6 = alloca ptr, align 8
  %7 = alloca %class.FactUnion, align 8
  %8 = alloca ptr, align 8
  %9 = alloca ptr, align 8
  %10 = alloca i32, align 4
  store ptr %0, ptr %4, align 8, !tbaa !9
  store i32 %1, ptr %5, align 4, !tbaa !19
  store ptr %2, ptr %6, align 8, !tbaa !46
  call void @llvm.lifetime.start.p0(i64 32, ptr %7) #3
  %11 = load ptr, ptr %4, align 8, !tbaa !9
  %12 = load i32, ptr %5, align 4, !tbaa !19
  call void @_ZN9FactUnionC1EPK8Variablei(ptr noundef nonnull align 8 dereferenceable(28) %7, ptr noundef %11, i32 noundef %12)
  call void @llvm.lifetime.start.p0(i64 8, ptr %8) #3
  %13 = load ptr, ptr %6, align 8, !tbaa !46
  %14 = invoke noundef ptr @_Z17find_related_factRKSt6vectorIPK4FactSaIS2_EES2_(ptr noundef nonnull align 8 dereferenceable(24) %13, ptr noundef %7)
          to label %15 unwind label %19

15:                                               ; preds = %3
  %16 = icmp eq ptr %14, null
  br i1 %16, label %23, label %17

17:                                               ; preds = %15
  %18 = call ptr @__dynamic_cast(ptr %14, ptr @_ZTI4Fact, ptr @_ZTI9FactUnion, i64 0) #3
  br label %24

19:                                               ; preds = %28, %3
  %20 = landingpad { ptr, i32 }
          cleanup
  %21 = extractvalue { ptr, i32 } %20, 0
  store ptr %21, ptr %9, align 8
  %22 = extractvalue { ptr, i32 } %20, 1
  store i32 %22, ptr %10, align 4
  call void @llvm.lifetime.end.p0(i64 8, ptr %8) #3
  call void @_ZN4FactD2Ev(ptr noundef nonnull align 8 dereferenceable(28) %7) #3
  call void @llvm.lifetime.end.p0(i64 32, ptr %7) #3
  br label %34

23:                                               ; preds = %15
  br label %24

24:                                               ; preds = %23, %17
  %25 = phi ptr [ %18, %17 ], [ null, %23 ]
  store ptr %25, ptr %8, align 8, !tbaa !4
  %26 = load ptr, ptr %8, align 8, !tbaa !4
  %27 = icmp ne ptr %26, null
  br i1 %27, label %28, label %32

28:                                               ; preds = %24
  %29 = load ptr, ptr %8, align 8, !tbaa !4
  %30 = invoke noundef zeroext i1 @_ZNK9FactUnion5implyERK4Fact(ptr noundef nonnull align 8 dereferenceable(28) %7, ptr noundef nonnull align 8 dereferenceable(12) %29)
          to label %31 unwind label %19

31:                                               ; preds = %28
  br label %32

32:                                               ; preds = %31, %24
  %33 = phi i1 [ false, %24 ], [ %30, %31 ]
  call void @llvm.lifetime.end.p0(i64 8, ptr %8) #3
  call void @_ZN4FactD2Ev(ptr noundef nonnull align 8 dereferenceable(28) %7) #3
  call void @llvm.lifetime.end.p0(i64 32, ptr %7) #3
  ret i1 %33

34:                                               ; preds = %19
  %35 = load ptr, ptr %9, align 8
  %36 = load i32, ptr %10, align 4
  %37 = insertvalue { ptr, i32 } poison, ptr %35, 0
  %38 = insertvalue { ptr, i32 } %37, i32 %36, 1
  resume { ptr, i32 } %38
}