; Function Attrs: mustprogress uwtable
define dso_local noundef zeroext i1 @_ZN9FactUnion17is_field_readableEPK8VariableiRKSt6vectorIPK4FactSaIS6_EE(ptr noundef %0, i32 noundef %1, ptr noundef nonnull align 8 dereferenceable(24) %2) local_unnamed_addr #3 align 2 personality ptr @__gxx_personality_v0 {
  %4 = alloca %class.FactUnion, align 8
  call void @llvm.lifetime.start.p0(i64 32, ptr nonnull %4) #15
  call void @_ZN4FactC2E13eFactCategory(ptr noundef nonnull align 8 dereferenceable(28) %4, i32 noundef 2)
  store ptr getelementptr inbounds nuw inrange(-16, 152) (i8, ptr @_ZTV9FactUnion, i64 16), ptr %4, align 8, !tbaa !4
  %5 = getelementptr inbounds nuw i8, ptr %4, i64 16
  store ptr %0, ptr %5, align 8, !tbaa !7
  %6 = getelementptr inbounds nuw i8, ptr %4, i64 24
  store i32 %1, ptr %6, align 8, !tbaa !15
  %7 = invoke noundef ptr @_Z17find_related_factRKSt6vectorIPK4FactSaIS2_EES2_(ptr noundef nonnull align 8 dereferenceable(24) %2, ptr noundef nonnull %4)
          to label %8 unwind label %10

8:                                                ; preds = %3
  %9 = icmp eq ptr %7, null
  br i1 %9, label %_ZNK9FactUnion5implyERK4Fact.exit, label %12

10:                                               ; preds = %29, %24, %19, %14, %3
  %11 = landingpad { ptr, i32 }
          cleanup
  call void @_ZN4FactD2Ev(ptr noundef nonnull align 8 dereferenceable(28) %4) #15
  call void @llvm.lifetime.end.p0(i64 32, ptr nonnull %4) #15
  resume { ptr, i32 } %11

12:                                               ; preds = %8
  %13 = call ptr @__dynamic_cast(ptr nonnull %7, ptr nonnull @_ZTI4Fact, ptr nonnull @_ZTI9FactUnion, i64 0) #15
  %.not = icmp eq ptr %13, null
  br i1 %.not, label %_ZNK9FactUnion5implyERK4Fact.exit, label %14

14:                                               ; preds = %12
  %15 = load ptr, ptr %4, align 8, !tbaa !4
  %16 = getelementptr inbounds nuw i8, ptr %15, i64 88
  %17 = load ptr, ptr %16, align 8
  %18 = invoke noundef zeroext i1 %17(ptr noundef nonnull align 8 dereferenceable(28) %4, ptr noundef nonnull align 8 dereferenceable(12) %13)
          to label %.noexc unwind label %10

.noexc:                                           ; preds = %14
  br i1 %18, label %19, label %34

19:                                               ; preds = %.noexc
  %20 = load ptr, ptr %4, align 8, !tbaa !4
  %21 = getelementptr inbounds nuw i8, ptr %20, i64 56
  %22 = load ptr, ptr %21, align 8
  %23 = invoke noundef zeroext i1 %22(ptr noundef nonnull align 8 dereferenceable(28) %4)
          to label %.noexc7 unwind label %10

.noexc7:                                          ; preds = %19
  br i1 %23, label %_ZNK9FactUnion5implyERK4Fact.exit, label %24

24:                                               ; preds = %.noexc7
  %25 = load ptr, ptr %13, align 8, !tbaa !4
  %26 = getelementptr inbounds nuw i8, ptr %25, i64 56
  %27 = load ptr, ptr %26, align 8
  %28 = invoke noundef zeroext i1 %27(ptr noundef nonnull align 8 dereferenceable(28) %13)
          to label %.noexc8 unwind label %10

.noexc8:                                          ; preds = %24
  br i1 %28, label %_ZNK9FactUnion5implyERK4Fact.exit, label %29

29:                                               ; preds = %.noexc8
  %30 = load ptr, ptr %4, align 8, !tbaa !4
  %31 = getelementptr inbounds nuw i8, ptr %30, i64 96
  %32 = load ptr, ptr %31, align 8
  %33 = invoke noundef zeroext i1 %32(ptr noundef nonnull align 8 dereferenceable(28) %4, ptr noundef nonnull align 8 dereferenceable(12) %13)
          to label %.noexc9 unwind label %10

.noexc9:                                          ; preds = %29
  br i1 %33, label %_ZNK9FactUnion5implyERK4Fact.exit, label %34

34:                                               ; preds = %.noexc9, %.noexc
  br label %_ZNK9FactUnion5implyERK4Fact.exit

_ZNK9FactUnion5implyERK4Fact.exit:                ; preds = %8, %34, %.noexc9, %.noexc8, %.noexc7, %12
  %35 = phi i1 [ false, %12 ], [ true, %.noexc9 ], [ false, %34 ], [ true, %.noexc7 ], [ false, %.noexc8 ], [ false, %8 ]
  call void @_ZN4FactD2Ev(ptr noundef nonnull align 8 dereferenceable(28) %4) #15
  call void @llvm.lifetime.end.p0(i64 32, ptr nonnull %4) #15
  ret i1 %35
}